; Function Attrs: mustprogress uwtable
define internal void @_ZN12_GLOBAL__N_113tactic2solver16assert_expr_coreEP4expr(ptr noundef nonnull align 8 dereferenceable(225) initializes((152, 156)) %0, ptr noundef %1) unnamed_addr #3 align 2 {
  %3 = getelementptr inbounds nuw i8, ptr %0, i64 152
  store i32 0, ptr %3, align 8, !tbaa !14
  %.not.i.i.i.i = icmp eq ptr %1, null
  br i1 %.not.i.i.i.i, label %_ZN15ref_vector_coreI4expr19ref_manager_wrapperIS0_11ast_managerEE7inc_refEPS0_.exit.i, label %4

4:                                                ; preds = %2
  %5 = getelementptr inbounds nuw i8, ptr %1, i64 8
  %6 = load i32, ptr %5, align 4, !tbaa !72
  %7 = add i32 %6, 1
  store i32 %7, ptr %5, align 4, !tbaa !72
  br label %_ZN15ref_vector_coreI4expr19ref_manager_wrapperIS0_11ast_managerEE7inc_refEPS0_.exit.i

_ZN15ref_vector_coreI4expr19ref_manager_wrapperIS0_11ast_managerEE7inc_refEPS0_.exit.i: ; preds = %4, %2
  %8 = getelementptr inbounds nuw i8, ptr %0, i64 128
  %9 = load ptr, ptr %8, align 8, !tbaa !10
  %10 = icmp eq ptr %9, null
  br i1 %10, label %17, label %11

11:                                               ; preds = %_ZN15ref_vector_coreI4expr19ref_manager_wrapperIS0_11ast_managerEE7inc_refEPS0_.exit.i
  %12 = getelementptr inbounds i8, ptr %9, i64 -4
  %13 = load i32, ptr %12, align 4, !tbaa !68
  %14 = getelementptr inbounds i8, ptr %9, i64 -8
  %15 = load i32, ptr %14, align 4, !tbaa !68
  %16 = icmp eq i32 %13, %15
  br i1 %16, label %17, label %_ZN15ref_vector_coreI4expr19ref_manager_wrapperIS0_11ast_managerEE9push_backEPS0_.exit

17:                                               ; preds = %11, %_ZN15ref_vector_coreI4expr19ref_manager_wrapperIS0_11ast_managerEE7inc_refEPS0_.exit.i
  tail call void @_ZN6vectorIP4exprLb0EjE13expand_vectorEv(ptr noundef nonnull align 8 dereferenceable(8) %8)
  %.pre.i.i = load ptr, ptr %8, align 8, !tbaa !10
  %.phi.trans.insert.i.i = getelementptr inbounds i8, ptr %.pre.i.i, i64 -4
  %.pre2.i.i = load i32, ptr %.phi.trans.insert.i.i, align 4, !tbaa !68
  br label %_ZN15ref_vector_coreI4expr19ref_manager_wrapperIS0_11ast_managerEE9push_backEPS0_.exit

_ZN15ref_vector_coreI4expr19ref_manager_wrapperIS0_11ast_managerEE9push_backEPS0_.exit: ; preds = %11, %17
  %18 = phi i32 [ %.pre2.i.i, %17 ], [ %13, %11 ]
  %19 = phi ptr [ %.pre.i.i, %17 ], [ %9, %11 ]
  %20 = getelementptr inbounds i8, ptr %19, i64 -4
  %21 = zext i32 %18 to i64
  %22 = getelementptr inbounds nuw ptr, ptr %19, i64 %21
  store ptr %1, ptr %22, align 8, !tbaa !69
  %23 = add i32 %18, 1
  store i32 %23, ptr %20, align 4, !tbaa !68
  %24 = getelementptr inbounds nuw i8, ptr %0, i64 168
  %25 = load ptr, ptr %24, align 8, !tbaa !65
  %.not.i.i = icmp eq ptr %25, null
  br i1 %.not.i.i, label %_ZN3refI23simple_check_sat_resultEaSEPS0_.exit, label %26

26:                                               ; preds = %_ZN15ref_vector_coreI4expr19ref_manager_wrapperIS0_11ast_managerEE9push_backEPS0_.exit
  %27 = getelementptr inbounds nuw i8, ptr %25, i64 48
  %28 = load i32, ptr %27, align 8, !tbaa !66
  %29 = add i32 %28, -1
  store i32 %29, ptr %27, align 8, !tbaa !66
  %30 = icmp eq i32 %29, 0
  br i1 %30, label %31, label %_ZN3refI23simple_check_sat_resultEaSEPS0_.exit

31:                                               ; preds = %26
  %32 = load ptr, ptr %25, align 8, !tbaa !3
  %33 = load ptr, ptr %32, align 8
  tail call void %33(ptr noundef nonnull align 8 dereferenceable(72) %25) #28
  tail call void @_ZN6memory10deallocateEPv(ptr noundef nonnull align 8 dereferenceable(72) %25)
  br label %_ZN3refI23simple_check_sat_resultEaSEPS0_.exit

_ZN3refI23simple_check_sat_resultEaSEPS0_.exit:   ; preds = %_ZN15ref_vector_coreI4expr19ref_manager_wrapperIS0_11ast_managerEE9push_backEPS0_.exit, %26, %31
  store ptr null, ptr %24, align 8, !tbaa !65
  ret void
}